target datalayout = "e-m:e-p270:32:32-p271:32:32-p272:64:64-i64:64-i128:128-f80:128-n8:16:32:64-S128"
target triple = "x86_64-pc-linux-gnu"

%struct.jv = type { i8, i8, i16, i32, %union.anon }
%union.anon = type { ptr }

@jv2tm.offsets = internal constant [8 x i64] [i64 20, i64 16, i64 12, i64 8, i64 4, i64 0, i64 24, i64 28], align 16

; Function Attrs: nounwind uwtable
define internal i32 @jv_is_valid(i64 %0, ptr %1) #0 {
  %3 = alloca %struct.jv, align 8
  %4 = getelementptr inbounds nuw { i64, ptr }, ptr %3, i32 0, i32 0
  store i64 %0, ptr %4, align 8
  %5 = getelementptr inbounds nuw { i64, ptr }, ptr %3, i32 0, i32 1
  store ptr %1, ptr %5, align 8
  %6 = getelementptr inbounds nuw { i64, ptr }, ptr %3, i32 0, i32 0
  %7 = load i64, ptr %6, align 8
  %8 = getelementptr inbounds nuw { i64, ptr }, ptr %3, i32 0, i32 1
  %9 = load ptr, ptr %8, align 8
  %10 = call i32 @jv_get_kind(i64 %7, ptr %9)
  %11 = icmp ne i32 %10, 0
  %12 = zext i1 %11 to i32
  ret i32 %12
}

; Function Attrs: nounwind uwtable
define internal i32 @jv2tm(i64 %0, ptr %1, ptr noundef %2) #0 {
  %4 = alloca i32, align 4
  %5 = alloca %struct.jv, align 8
  %6 = alloca ptr, align 8
  %7 = alloca i64, align 8
  %8 = alloca i32, align 4
  %9 = alloca %struct.jv, align 8
  %10 = alloca %struct.jv, align 8
  %11 = alloca double, align 8
  %12 = getelementptr inbounds nuw { i64, ptr }, ptr %5, i32 0, i32 0
  store i64 %0, ptr %12, align 8
  %13 = getelementptr inbounds nuw { i64, ptr }, ptr %5, i32 0, i32 1
  store ptr %1, ptr %13, align 8
  store ptr %2, ptr %6, align 8, !tbaa !84
  %14 = load ptr, ptr %6, align 8, !tbaa !84
  call void @llvm.memset.p0.i64(ptr align 8 %14, i8 0, i64 56, i1 false)
  call void @llvm.lifetime.start.p0(i64 8, ptr %7) #10
  store i64 0, ptr %7, align 8, !tbaa !22
  br label %15

15:                                               ; preds = %108, %3
  %16 = load i64, ptr %7, align 8, !tbaa !22
  %17 = icmp ult i64 %16, 8
  br i1 %17, label %19, label %18

18:                                               ; preds = %15
  store i32 2, ptr %8, align 4
  br label %111

19:                                               ; preds = %15
  call void @llvm.lifetime.start.p0(i64 16, ptr %9) #10
  %20 = getelementptr inbounds nuw { i64, ptr }, ptr %5, i32 0, i32 0
  %21 = load i64, ptr %20, align 8
  %22 = getelementptr inbounds nuw { i64, ptr }, ptr %5, i32 0, i32 1
  %23 = load ptr, ptr %22, align 8
  %24 = call { i64, ptr } @jv_copy(i64 %21, ptr %23)
  %25 = getelementptr inbounds nuw { i64, ptr }, ptr %10, i32 0, i32 0
  %26 = extractvalue { i64, ptr } %24, 0
  store i64 %26, ptr %25, align 8
  %27 = getelementptr inbounds nuw { i64, ptr }, ptr %10, i32 0, i32 1
  %28 = extractvalue { i64, ptr } %24, 1
  store ptr %28, ptr %27, align 8
  %29 = load i64, ptr %7, align 8, !tbaa !22
  %30 = trunc i64 %29 to i32
  %31 = getelementptr inbounds nuw { i64, ptr }, ptr %10, i32 0, i32 0
  %32 = load i64, ptr %31, align 8
  %33 = getelementptr inbounds nuw { i64, ptr }, ptr %10, i32 0, i32 1
  %34 = load ptr, ptr %33, align 8
  %35 = call { i64, ptr } @jv_array_get(i64 %32, ptr %34, i32 noundef %30)
  %36 = getelementptr inbounds nuw { i64, ptr }, ptr %9, i32 0, i32 0
  %37 = extractvalue { i64, ptr } %35, 0
  store i64 %37, ptr %36, align 8
  %38 = getelementptr inbounds nuw { i64, ptr }, ptr %9, i32 0, i32 1
  %39 = extractvalue { i64, ptr } %35, 1
  store ptr %39, ptr %38, align 8
  %40 = getelementptr inbounds nuw { i64, ptr }, ptr %9, i32 0, i32 0
  %41 = load i64, ptr %40, align 8
  %42 = getelementptr inbounds nuw { i64, ptr }, ptr %9, i32 0, i32 1
  %43 = load ptr, ptr %42, align 8
  %44 = call i32 @jv_is_valid(i64 %41, ptr %43)
  %45 = icmp ne i32 %44, 0
  br i1 %45, label %47, label %46

46:                                               ; preds = %19
  store i32 2, ptr %8, align 4
  br label %105

47:                                               ; preds = %19
  %48 = getelementptr inbounds nuw { i64, ptr }, ptr %9, i32 0, i32 0
  %49 = load i64, ptr %48, align 8
  %50 = getelementptr inbounds nuw { i64, ptr }, ptr %9, i32 0, i32 1
  %51 = load ptr, ptr %50, align 8
  %52 = call i32 @jv_get_kind(i64 %49, ptr %51)
  %53 = icmp ne i32 %52, 4
  br i1 %53, label %61, label %54

54:                                               ; preds = %47
  %55 = getelementptr inbounds nuw { i64, ptr }, ptr %9, i32 0, i32 0
  %56 = load i64, ptr %55, align 8
  %57 = getelementptr inbounds nuw { i64, ptr }, ptr %9, i32 0, i32 1
  %58 = load ptr, ptr %57, align 8
  %59 = call i32 @jvp_number_is_nan(i64 %56, ptr %58)
  %60 = icmp ne i32 %59, 0
  br i1 %60, label %61, label %70

61:                                               ; preds = %54, %47
  %62 = getelementptr inbounds nuw { i64, ptr }, ptr %5, i32 0, i32 0
  %63 = load i64, ptr %62, align 8
  %64 = getelementptr inbounds nuw { i64, ptr }, ptr %5, i32 0, i32 1
  %65 = load ptr, ptr %64, align 8
  call void @jv_free(i64 %63, ptr %65)
  %66 = getelementptr inbounds nuw { i64, ptr }, ptr %9, i32 0, i32 0
  %67 = load i64, ptr %66, align 8
  %68 = getelementptr inbounds nuw { i64, ptr }, ptr %9, i32 0, i32 1
  %69 = load ptr, ptr %68, align 8
  call void @jv_free(i64 %67, ptr %69)
  store i32 0, ptr %4, align 4
  store i32 1, ptr %8, align 4
  br label %105

70:                                               ; preds = %54
  call void @llvm.lifetime.start.p0(i64 8, ptr %11) #10
  %71 = getelementptr inbounds nuw { i64, ptr }, ptr %9, i32 0, i32 0
  %72 = load i64, ptr %71, align 8
  %73 = getelementptr inbounds nuw { i64, ptr }, ptr %9, i32 0, i32 1
  %74 = load ptr, ptr %73, align 8
  %75 = call double @jv_number_value(i64 %72, ptr %74)
  store double %75, ptr %11, align 8, !tbaa !20
  %76 = load i64, ptr %7, align 8, !tbaa !22
  %77 = icmp eq i64 %76, 0
  br i1 %77, label %78, label %81

78:                                               ; preds = %70
  %79 = load double, ptr %11, align 8, !tbaa !20
  %80 = fsub double %79, 1.900000e+03
  store double %80, ptr %11, align 8, !tbaa !20
  br label %81

81:                                               ; preds = %78, %70
  %82 = load double, ptr %11, align 8, !tbaa !20
  %83 = fcmp olt double %82, 0xC1E0000000000000
  br i1 %83, label %84, label %85

84:                                               ; preds = %81
  br label %94

85:                                               ; preds = %81
  %86 = load double, ptr %11, align 8, !tbaa !20
  %87 = fcmp ogt double %86, 0x41DFFFFFFFC00000
  br i1 %87, label %88, label %89

88:                                               ; preds = %85
  br label %92

89:                                               ; preds = %85
  %90 = load double, ptr %11, align 8, !tbaa !20
  %91 = fptosi double %90 to i32
  br label %92

92:                                               ; preds = %89, %88
  %93 = phi i32 [ 2147483647, %88 ], [ %91, %89 ]
  br label %94

94:                                               ; preds = %92, %84
  %95 = phi i32 [ -2147483648, %84 ], [ %93, %92 ]
  %96 = load ptr, ptr %6, align 8, !tbaa !84
  %97 = load i64, ptr %7, align 8, !tbaa !22
  %98 = getelementptr inbounds nuw [8 x i64], ptr @jv2tm.offsets, i64 0, i64 %97
  %99 = load i64, ptr %98, align 8, !tbaa !22
  %100 = getelementptr inbounds nuw i8, ptr %96, i64 %99
  store i32 %95, ptr %100, align 4, !tbaa !10
  %101 = getelementptr inbounds nuw { i64, ptr }, ptr %9, i32 0, i32 0
  %102 = load i64, ptr %101, align 8
  %103 = getelementptr inbounds nuw { i64, ptr }, ptr %9, i32 0, i32 1
  %104 = load ptr, ptr %103, align 8
  call void @jv_free(i64 %102, ptr %104)
  call void @llvm.lifetime.end.p0(i64 8, ptr %11) #10
  store i32 0, ptr %8, align 4
  br label %105

105:                                              ; preds = %94, %61, %46
  call void @llvm.lifetime.end.p0(i64 16, ptr %9) #10
  %106 = load i32, ptr %8, align 4
  switch i32 %106, label %111 [
    i32 0, label %107
  ]

107:                                              ; preds = %105
  br label %108

108:                                              ; preds = %107
  %109 = load i64, ptr %7, align 8, !tbaa !22
  %110 = add i64 %109, 1
  store i64 %110, ptr %7, align 8, !tbaa !22
  br label %15, !llvm.loop !98

111:                                              ; preds = %105, %18
  call void @llvm.lifetime.end.p0(i64 8, ptr %7) #10
  %112 = load i32, ptr %8, align 4
  switch i32 %112, label %120 [
    i32 2, label %113
    i32 1, label %118
  ]

113:                                              ; preds = %111
  %114 = getelementptr inbounds nuw { i64, ptr }, ptr %5, i32 0, i32 0
  %115 = load i64, ptr %114, align 8
  %116 = getelementptr inbounds nuw { i64, ptr }, ptr %5, i32 0, i32 1
  %117 = load ptr, ptr %116, align 8
  call void @jv_free(i64 %115, ptr %117)
  store i32 1, ptr %4, align 4
  br label %118

118:                                              ; preds = %113, %111
  %119 = load i32, ptr %4, align 4
  ret i32 %119

120:                                              ; preds = %111
  unreachable
}