; Function Attrs: nounwind uwtable
define internal fastcc range(i32 0, 2) i32 @jv2tm(i64 %0, ptr %1, ptr noundef nonnull writeonly captures(none) initializes((0, 56)) %2) unnamed_addr #0 {
  tail call void @llvm.memset.p0.i64(ptr noundef nonnull align 8 dereferenceable(56) %2, i8 0, i64 56, i1 false)
  br label %4

4:                                                ; preds = %3, %25
  %.03047 = phi i64 [ 0, %3 ], [ %30, %25 ]
  %5 = tail call { i64, ptr } @jv_copy(i64 %0, ptr %1) #14
  %6 = extractvalue { i64, ptr } %5, 0
  %7 = extractvalue { i64, ptr } %5, 1
  %8 = trunc nuw nsw i64 %.03047 to i32
  %9 = tail call { i64, ptr } @jv_array_get(i64 %6, ptr %7, i32 noundef %8) #14
  %10 = extractvalue { i64, ptr } %9, 0
  %11 = extractvalue { i64, ptr } %9, 1
  %12 = tail call i32 @jv_get_kind(i64 %10, ptr %11) #14
  %.not45 = icmp eq i32 %12, 0
  br i1 %.not45, label %.thread37, label %13

13:                                               ; preds = %4
  %14 = tail call i32 @jv_get_kind(i64 %10, ptr %11) #14
  %.not33 = icmp eq i32 %14, 4
  br i1 %.not33, label %15, label %31

15:                                               ; preds = %13
  %16 = tail call i32 @jvp_number_is_nan(i64 %10, ptr %11) #14
  %.not34 = icmp eq i32 %16, 0
  br i1 %.not34, label %17, label %31

17:                                               ; preds = %15
  %18 = tail call double @jv_number_value(i64 %10, ptr %11) #14
  %19 = icmp eq i64 %.03047, 0
  %20 = fadd double %18, -1.900000e+03
  %.0 = select i1 %19, double %20, double %18
  %21 = fcmp olt double %.0, 0xC1E0000000000000
  br i1 %21, label %25, label %22

22:                                               ; preds = %17
  %.inv = fcmp oge double %.0, 0x41DFFFFFFFC00000
  %23 = select i1 %.inv, double 0x41DFFFFFFFC00000, double %.0
  %24 = fptosi double %23 to i32
  br label %25

25:                                               ; preds = %17, %22
  %26 = phi i32 [ %24, %22 ], [ -2147483648, %17 ]
  %27 = getelementptr inbounds nuw [8 x i64], ptr @jv2tm.offsets, i64 0, i64 %.03047
  %28 = load i64, ptr %27, align 8, !tbaa !66
  %29 = getelementptr inbounds nuw i8, ptr %2, i64 %28
  store i32 %26, ptr %29, align 4, !tbaa !19
  tail call void @jv_free(i64 %10, ptr %11) #14
  %30 = add nuw nsw i64 %.03047, 1
  %exitcond.not = icmp eq i64 %30, 8
  br i1 %exitcond.not, label %.thread37, label %4, !llvm.loop !79

31:                                               ; preds = %13, %15
  tail call void @jv_free(i64 %0, ptr %1) #14
  tail call void @jv_free(i64 %10, ptr %11) #14
  br label %32

.thread37:                                        ; preds = %4, %25
  tail call void @jv_free(i64 %0, ptr %1) #14
  br label %32

32:                                               ; preds = %31, %.thread37
  %.3 = phi i32 [ 0, %31 ], [ 1, %.thread37 ]
  ret i32 %.3
}